; Function Attrs: nounwind uwtable
define internal void @mov_text_new_line_cb(ptr noundef %0, i32 %1) #1 {
  %3 = getelementptr inbounds nuw i8, ptr %0, i64 1116
  %4 = load i16, ptr %3, align 4, !tbaa !74
  %5 = add i16 %4, 1
  store i16 %5, ptr %3, align 4, !tbaa !74
  %6 = getelementptr inbounds nuw i8, ptr %0, i64 64
  tail call void @av_bprint_chars(ptr noundef nonnull %6, i8 noundef signext 10, i32 noundef 1) #8
  ret void
}